target datalayout = "e-m:e-p270:32:32-p271:32:32-p272:64:64-i64:64-i128:128-f80:128-n8:16:32:64-S128"
target triple = "x86_64-unknown-linux-gnu"

; Function Attrs: mustprogress uwtable
define dso_local void @_ZN6mygame7Monster8CopyFromERKS0_(ptr noundef nonnull align 8 dereferenceable(112) %this, ptr noundef nonnull align 8 dereferenceable(112) %from) #4 align 2 {
entry:
  %this.addr = alloca ptr, align 8
  %from.addr = alloca ptr, align 8
  store ptr %this, ptr %this.addr, align 8
  store ptr %from, ptr %from.addr, align 8
  %this1 = load ptr, ptr %this.addr, align 8
  %0 = load ptr, ptr %from.addr, align 8
  %cmp = icmp eq ptr %0, %this1
  br i1 %cmp, label %if.then, label %if.end

if.then:                                          ; preds = %entry
  br label %return

if.end:                                           ; preds = %entry
  call void @_ZN6mygame7Monster5ClearEv(ptr noundef nonnull align 8 dereferenceable(112) %this1)
  %1 = load ptr, ptr %from.addr, align 8
  call void @_ZN6mygame7Monster9MergeFromERKS0_(ptr noundef nonnull align 8 dereferenceable(112) %this1, ptr noundef nonnull align 8 dereferenceable(112) %1)
  br label %return

return:                                           ; preds = %if.end, %if.then
  ret void
}