; Function Attrs: mustprogress uwtable
define dso_local void @_ZN6mygame7Monster8CopyFromERKS0_(ptr noundef nonnull align 8 dereferenceable(112) %this, ptr noundef nonnull align 8 dereferenceable(112) %from) local_unnamed_addr #3 align 2 {
entry:
  %cmp = icmp eq ptr %from, %this
  br i1 %cmp, label %return, label %if.end

if.end:                                           ; preds = %entry
  tail call void @_ZN6mygame7Monster5ClearEv(ptr noundef nonnull align 8 dereferenceable(112) %this)
  tail call void @_ZN6mygame7Monster9MergeFromERKS0_(ptr noundef nonnull align 8 dereferenceable(112) %this, ptr noundef nonnull align 8 dereferenceable(112) %from)
  br label %return

return:                                           ; preds = %entry, %if.end
  ret void
}